target datalayout = "e-m:e-p270:32:32-p271:32:32-p272:64:64-i64:64-i128:128-f80:128-n8:16:32:64-S128"
target triple = "x86_64-pc-linux-gnu"

%struct.fstReaderContext = type { ptr, ptr, i64, i64, i64, i64, i64, i32, i64, i64, ptr, ptr, ptr, i32, ptr, i8, i8, i8, [129 x i8], [120 x i8], i64, ptr, ptr, i64, i32, ptr, ptr, i64, i64, i8, ptr, i64, i64, ptr, i64, ptr, ptr, i64, i64, ptr, i32, i32, ptr, i32, i32, i32, i64, i8, %struct.fstHier, ptr, i32, ptr, i32, i8, [513 x i8], [513 x i8], ptr, i8, i32, i32, [65536 x i8], ptr, ptr }
%struct.fstHier = type { i8, %union.anon }
%union.anon = type { %"struct.fstHier::(anonymous union)::fstHierAttr" }
%"struct.fstHier::(anonymous union)::fstHierAttr" = type { i8, i8, ptr, i64, i64, i32 }

; Function Attrs: mustprogress nounwind uwtable
define i32 @fstReaderGetFileType(ptr noundef %0) #8 {
  %2 = alloca ptr, align 8
  %3 = alloca ptr, align 8
  store ptr %0, ptr %2, align 8, !tbaa !50
  call void @llvm.lifetime.start.p0(i64 8, ptr %3) #15
  %4 = load ptr, ptr %2, align 8, !tbaa !50
  store ptr %4, ptr %3, align 8, !tbaa !147
  %5 = load ptr, ptr %3, align 8, !tbaa !147
  %6 = icmp ne ptr %5, null
  br i1 %6, label %7, label %12

7:                                                ; preds = %1
  %8 = load ptr, ptr %3, align 8, !tbaa !147
  %9 = getelementptr inbounds nuw %struct.fstReaderContext, ptr %8, i32 0, i32 16
  %10 = load i8, ptr %9, align 1, !tbaa !171
  %11 = zext i8 %10 to i32
  br label %13

12:                                               ; preds = %1
  br label %13

13:                                               ; preds = %12, %7
  %14 = phi i32 [ %11, %7 ], [ 0, %12 ]
  call void @llvm.lifetime.end.p0(i64 8, ptr %3) #15
  ret i32 %14
}