; Function Attrs: mustprogress nofree norecurse nosync nounwind willreturn memory(argmem: read) uwtable
define range(i32 0, 256) i32 @fstReaderGetFileType(ptr noundef readonly captures(address_is_null) %0) local_unnamed_addr #20 {
  %.not = icmp eq ptr %0, null
  br i1 %.not, label %6, label %2

2:                                                ; preds = %1
  %3 = getelementptr inbounds nuw i8, ptr %0, i64 121
  %4 = load i8, ptr %3, align 1, !tbaa !145
  %5 = zext i8 %4 to i32
  br label %6

6:                                                ; preds = %1, %2
  %7 = phi i32 [ %5, %2 ], [ 0, %1 ]
  ret i32 %7
}